target datalayout = "e-m:e-p270:32:32-p271:32:32-p272:64:64-i64:64-i128:128-f80:128-n8:16:32:64-S128"
target triple = "x86_64-pc-linux-gnu"

@.str = private unnamed_addr constant [32 x i8] c"../openssl/crypto/cmp/cmp_msg.c\00", align 1
@__func__.OSSL_CMP_MSG_write = private unnamed_addr constant [19 x i8] c"OSSL_CMP_MSG_write\00", align 1
@.str.31 = private unnamed_addr constant [3 x i8] c"wb\00", align 1

; Function Attrs: nounwind uwtable
define i32 @i2d_OSSL_CMP_MSG_bio(ptr noundef %0, ptr noundef %1) #0 {
  %3 = alloca ptr, align 8
  %4 = alloca ptr, align 8
  store ptr %0, ptr %3, align 8, !tbaa !109
  store ptr %1, ptr %4, align 8, !tbaa !10
  %5 = load ptr, ptr %3, align 8, !tbaa !109
  %6 = load ptr, ptr %4, align 8, !tbaa !10
  %7 = call i32 @ASN1_i2d_bio(ptr noundef @i2d_OSSL_CMP_MSG, ptr noundef %5, ptr noundef %6)
  ret i32 %7
}

; Function Attrs: nounwind uwtable
define i32 @OSSL_CMP_MSG_write(ptr noundef %0, ptr noundef %1) #0 {
  %3 = alloca i32, align 4
  %4 = alloca ptr, align 8
  %5 = alloca ptr, align 8
  %6 = alloca ptr, align 8
  %7 = alloca i32, align 4
  %8 = alloca i32, align 4
  store ptr %0, ptr %4, align 8, !tbaa !8
  store ptr %1, ptr %5, align 8, !tbaa !10
  call void @llvm.lifetime.start.p0(i64 8, ptr %6) #6
  call void @llvm.lifetime.start.p0(i64 4, ptr %7) #6
  %9 = load ptr, ptr %4, align 8, !tbaa !8
  %10 = icmp eq ptr %9, null
  br i1 %10, label %14, label %11

11:                                               ; preds = %2
  %12 = load ptr, ptr %5, align 8, !tbaa !10
  %13 = icmp eq ptr %12, null
  br i1 %13, label %14, label %15

14:                                               ; preds = %11, %2
  call void @ERR_new()
  call void @ERR_set_debug(ptr noundef @.str, i32 noundef 1234, ptr noundef @__func__.OSSL_CMP_MSG_write)
  call void (i32, i32, ptr, ...) @ERR_set_error(i32 noundef 58, i32 noundef 103, ptr noundef null)
  store i32 -1, ptr %3, align 4
  store i32 1, ptr %8, align 4
  br label %28

15:                                               ; preds = %11
  %16 = load ptr, ptr %4, align 8, !tbaa !8
  %17 = call ptr @BIO_new_file(ptr noundef %16, ptr noundef @.str.31)
  store ptr %17, ptr %6, align 8, !tbaa !109
  %18 = load ptr, ptr %6, align 8, !tbaa !109
  %19 = icmp eq ptr %18, null
  br i1 %19, label %20, label %21

20:                                               ; preds = %15
  store i32 -2, ptr %3, align 4
  store i32 1, ptr %8, align 4
  br label %28

21:                                               ; preds = %15
  %22 = load ptr, ptr %6, align 8, !tbaa !109
  %23 = load ptr, ptr %5, align 8, !tbaa !10
  %24 = call i32 @i2d_OSSL_CMP_MSG_bio(ptr noundef %22, ptr noundef %23)
  store i32 %24, ptr %7, align 4, !tbaa !20
  %25 = load ptr, ptr %6, align 8, !tbaa !109
  %26 = call i32 @BIO_free(ptr noundef %25)
  %27 = load i32, ptr %7, align 4, !tbaa !20
  store i32 %27, ptr %3, align 4
  store i32 1, ptr %8, align 4
  br label %28

28:                                               ; preds = %21, %20, %14
  call void @llvm.lifetime.end.p0(i64 4, ptr %7) #6
  call void @llvm.lifetime.end.p0(i64 8, ptr %6) #6
  %29 = load i32, ptr %3, align 4
  ret i32 %29
}