; Function Attrs: nounwind uwtable
define i32 @OSSL_CMP_MSG_write(ptr noundef %0, ptr noundef %1) local_unnamed_addr #0 {
  %3 = icmp eq ptr %0, null
  %4 = icmp eq ptr %1, null
  %or.cond = or i1 %3, %4
  br i1 %or.cond, label %5, label %6

5:                                                ; preds = %2
  tail call void @ERR_new() #7
  tail call void @ERR_set_debug(ptr noundef nonnull @.str, i32 noundef 1234, ptr noundef nonnull @__func__.OSSL_CMP_MSG_write) #7
  tail call void (i32, i32, ptr, ...) @ERR_set_error(i32 noundef 58, i32 noundef 103, ptr noundef null) #7
  br label %12

6:                                                ; preds = %2
  %7 = tail call ptr @BIO_new_file(ptr noundef nonnull %0, ptr noundef nonnull @.str.31) #7
  %8 = icmp eq ptr %7, null
  br i1 %8, label %12, label %9

9:                                                ; preds = %6
  %10 = tail call i32 @ASN1_i2d_bio(ptr noundef nonnull @i2d_OSSL_CMP_MSG, ptr noundef nonnull %7, ptr noundef nonnull %1) #7
  %11 = tail call i32 @BIO_free(ptr noundef nonnull %7) #7
  br label %12

12:                                               ; preds = %6, %9, %5
  %.0 = phi i32 [ -1, %5 ], [ %10, %9 ], [ -2, %6 ]
  ret i32 %.0
}